; Function Attrs: inlinehint mustprogress nounwind uwtable
define internal void @_ZN7doctest12_GLOBAL__N_115ConsoleReporterD0Ev(ptr noundef nonnull align 8 dereferenceable(112) initializes((0, 8)) %0) unnamed_addr #9 align 2 personality ptr @__gxx_personality_v0 {
  store ptr getelementptr inbounds nuw inrange(-16, 120) (i8, ptr @_ZTVN7doctest12_GLOBAL__N_115ConsoleReporterE, i64 16), ptr %0, align 8, !tbaa !31
  %2 = getelementptr inbounds nuw i8, ptr %0, i64 24
  %3 = load ptr, ptr %2, align 8, !tbaa !136
  %4 = getelementptr inbounds nuw i8, ptr %0, i64 32
  %5 = load ptr, ptr %4, align 8, !tbaa !133
  %.not4.i.i.i.i.i = icmp eq ptr %3, %5
  br i1 %.not4.i.i.i.i.i, label %_ZSt8_DestroyIPN7doctest16SubcaseSignatureES1_EvT_S3_RSaIT0_E.exit.i.i, label %.lr.ph.i.i.i.i.i

.lr.ph.i.i.i.i.i:                                 ; preds = %1, %_ZSt8_DestroyIN7doctest16SubcaseSignatureEEvPT_.exit.i.i.i.i.i
  %.05.i.i.i.i.i = phi ptr [ %13, %_ZSt8_DestroyIN7doctest16SubcaseSignatureEEvPT_.exit.i.i.i.i.i ], [ %3, %1 ]
  %6 = getelementptr inbounds nuw i8, ptr %.05.i.i.i.i.i, i64 23
  %7 = load i8, ptr %6, align 1, !tbaa !38
  %8 = icmp sgt i8 %7, -1
  br i1 %8, label %_ZSt8_DestroyIN7doctest16SubcaseSignatureEEvPT_.exit.i.i.i.i.i, label %9

9:                                                ; preds = %.lr.ph.i.i.i.i.i
  %10 = load ptr, ptr %.05.i.i.i.i.i, align 8, !tbaa !38
  %11 = icmp eq ptr %10, null
  br i1 %11, label %_ZSt8_DestroyIN7doctest16SubcaseSignatureEEvPT_.exit.i.i.i.i.i, label %12

12:                                               ; preds = %9
  tail call void @_ZdaPv(ptr noundef nonnull %10) #48
  br label %_ZSt8_DestroyIN7doctest16SubcaseSignatureEEvPT_.exit.i.i.i.i.i

_ZSt8_DestroyIN7doctest16SubcaseSignatureEEvPT_.exit.i.i.i.i.i: ; preds = %12, %9, %.lr.ph.i.i.i.i.i
  %13 = getelementptr inbounds nuw i8, ptr %.05.i.i.i.i.i, i64 40
  %.not.i.i.i.i.i = icmp eq ptr %13, %5
  br i1 %.not.i.i.i.i.i, label %_ZSt8_DestroyIPN7doctest16SubcaseSignatureES1_EvT_S3_RSaIT0_E.exitthread-pre-split.i.i, label %.lr.ph.i.i.i.i.i, !llvm.loop !193

_ZSt8_DestroyIPN7doctest16SubcaseSignatureES1_EvT_S3_RSaIT0_E.exitthread-pre-split.i.i: ; preds = %_ZSt8_DestroyIN7doctest16SubcaseSignatureEEvPT_.exit.i.i.i.i.i
  %.pr.i.i = load ptr, ptr %2, align 8, !tbaa !136
  br label %_ZSt8_DestroyIPN7doctest16SubcaseSignatureES1_EvT_S3_RSaIT0_E.exit.i.i

_ZSt8_DestroyIPN7doctest16SubcaseSignatureES1_EvT_S3_RSaIT0_E.exit.i.i: ; preds = %_ZSt8_DestroyIPN7doctest16SubcaseSignatureES1_EvT_S3_RSaIT0_E.exitthread-pre-split.i.i, %1
  %14 = phi ptr [ %.pr.i.i, %_ZSt8_DestroyIPN7doctest16SubcaseSignatureES1_EvT_S3_RSaIT0_E.exitthread-pre-split.i.i ], [ %3, %1 ]
  %.not.i.i.i.i = icmp eq ptr %14, null
  br i1 %.not.i.i.i.i, label %_ZN7doctest12_GLOBAL__N_115ConsoleReporterD2Ev.exit, label %15

15:                                               ; preds = %_ZSt8_DestroyIPN7doctest16SubcaseSignatureES1_EvT_S3_RSaIT0_E.exit.i.i
  %16 = getelementptr inbounds nuw i8, ptr %0, i64 40
  %17 = load ptr, ptr %16, align 8, !tbaa !177
  %18 = ptrtoint ptr %17 to i64
  %19 = ptrtoint ptr %14 to i64
  %20 = sub i64 %18, %19
  tail call void @_ZdlPvm(ptr noundef nonnull %14, i64 noundef %20) #48
  br label %_ZN7doctest12_GLOBAL__N_115ConsoleReporterD2Ev.exit

_ZN7doctest12_GLOBAL__N_115ConsoleReporterD2Ev.exit: ; preds = %_ZSt8_DestroyIPN7doctest16SubcaseSignatureES1_EvT_S3_RSaIT0_E.exit.i.i, %15
  tail call void @_ZdlPvm(ptr noundef nonnull %0, i64 noundef 112) #48
  ret void
}